; Function Attrs: mustprogress uwtable
define void @_ZN32pxrInternal_v0_24__pxrReserved__7TfDebug27_ComplainAboutInvalidSymbolEPKc(ptr noundef %0) local_unnamed_addr #0 align 2 {
  %2 = alloca %"class.pxrInternal_v0_24__pxrReserved__::TfCallContext", align 8
  store ptr @.str.10, ptr %2, align 8
  %3 = getelementptr inbounds nuw i8, ptr %2, i64 8
  store ptr @__func__._ZN32pxrInternal_v0_24__pxrReserved__7TfDebug27_ComplainAboutInvalidSymbolEPKc, ptr %3, align 8
  %4 = getelementptr inbounds nuw i8, ptr %2, i64 16
  store i64 462, ptr %4, align 8
  %5 = getelementptr inbounds nuw i8, ptr %2, i64 24
  store ptr @__PRETTY_FUNCTION__._ZN32pxrInternal_v0_24__pxrReserved__7TfDebug27_ComplainAboutInvalidSymbolEPKc, ptr %5, align 8
  %6 = getelementptr inbounds nuw i8, ptr %2, i64 32
  store i8 0, ptr %6, align 8
  call void (ptr, i32, ptr, ...) @_ZN32pxrInternal_v0_24__pxrReserved__18Tf_PostErrorHelperERKNS_13TfCallContextENS_16TfDiagnosticTypeEPKcz(ptr noundef nonnull align 8 dereferenceable(33) %2, i32 noundef 1, ptr noundef nonnull @.str.17, ptr noundef %0)
  ret void
}